; Function Attrs: inlinehint mustprogress nounwind uwtable
define internal void @_ZN9grpc_core12_GLOBAL__N_16GrpcLb6Picker21SubchannelCallTrackerD2Ev(ptr noundef nonnull align 8 captures(none) dereferenceable(24) %0) unnamed_addr #16 align 2 personality ptr @__gxx_personality_v0 {
  %2 = getelementptr inbounds nuw i8, ptr %0, i64 16
  %3 = load ptr, ptr %2, align 8, !tbaa !615
  %.not.i = icmp eq ptr %3, null
  br i1 %.not.i, label %_ZNSt10unique_ptrIN9grpc_core19LoadBalancingPolicy30SubchannelCallTrackerInterfaceESt14default_deleteIS2_EED2Ev.exit, label %_ZNKSt14default_deleteIN9grpc_core19LoadBalancingPolicy30SubchannelCallTrackerInterfaceEEclEPS2_.exit.i

_ZNKSt14default_deleteIN9grpc_core19LoadBalancingPolicy30SubchannelCallTrackerInterfaceEEclEPS2_.exit.i: ; preds = %1
  %4 = load ptr, ptr %3, align 8, !tbaa !6
  %5 = getelementptr inbounds nuw i8, ptr %4, i64 8
  %6 = load ptr, ptr %5, align 8
  tail call void %6(ptr noundef nonnull align 8 dereferenceable(8) %3) #42
  br label %_ZNSt10unique_ptrIN9grpc_core19LoadBalancingPolicy30SubchannelCallTrackerInterfaceESt14default_deleteIS2_EED2Ev.exit

_ZNSt10unique_ptrIN9grpc_core19LoadBalancingPolicy30SubchannelCallTrackerInterfaceESt14default_deleteIS2_EED2Ev.exit: ; preds = %1, %_ZNKSt14default_deleteIN9grpc_core19LoadBalancingPolicy30SubchannelCallTrackerInterfaceEEclEPS2_.exit.i
  store ptr null, ptr %2, align 8, !tbaa !615
  %7 = getelementptr inbounds nuw i8, ptr %0, i64 8
  %8 = load ptr, ptr %7, align 8, !tbaa !252
  %.not.i1 = icmp eq ptr %8, null
  br i1 %.not.i1, label %_ZN9grpc_core13RefCountedPtrINS_17GrpcLbClientStatsEED2Ev.exit, label %9

9:                                                ; preds = %_ZNSt10unique_ptrIN9grpc_core19LoadBalancingPolicy30SubchannelCallTrackerInterfaceESt14default_deleteIS2_EED2Ev.exit
  %10 = getelementptr inbounds nuw i8, ptr %8, i64 8
  %11 = atomicrmw sub ptr %10, i64 1 acq_rel, align 8
  %12 = icmp eq i64 %11, 1
  br i1 %12, label %13, label %_ZN9grpc_core13RefCountedPtrINS_17GrpcLbClientStatsEED2Ev.exit, !prof !74

13:                                               ; preds = %9
  tail call void @_ZNK9grpc_core11UnrefDeleteclIKNS_17GrpcLbClientStatsEEEvPT_(ptr noundef nonnull align 8 dereferenceable(16) %8, ptr noundef nonnull align 8 dereferenceable(16) %8)
  br label %_ZN9grpc_core13RefCountedPtrINS_17GrpcLbClientStatsEED2Ev.exit

_ZN9grpc_core13RefCountedPtrINS_17GrpcLbClientStatsEED2Ev.exit: ; preds = %_ZNSt10unique_ptrIN9grpc_core19LoadBalancingPolicy30SubchannelCallTrackerInterfaceESt14default_deleteIS2_EED2Ev.exit, %9, %13
  ret void
}